Stack Allocation = 2048 bytes

 Start  Stop   Length Name                   Class
 00000H 01F5CH 01F5DH _TEXT                  CODE
 01F5DH 01F5DH 00000H C_ETEXT                ENDCODE
 01F60H 01F95H 00036H NULL                   BEGDATA
 01F96H 02737H 007A2H _DATA                  DATA
 02738H 02745H 0000EH CDATA                  DATA
 02746H 02746H 00000H XIB                    DATA
 02746H 0274BH 00006H XI                     DATA
 0274CH 0274CH 00000H XIE                    DATA
 0274CH 0274CH 00000H XPB                    DATA
 0274CH 0274DH 00002H XP                     DATA
 0274EH 0274EH 00000H XPE                    DATA
 0274EH 0274EH 00000H XCB                    DATA
 0274EH 0274FH 00002H XC                     DATA
 02750H 02750H 00000H XCE                    DATA
 02750H 02750H 00000H CONST                  CONST
 02750H 02773H 00024H _BSS                   BSS
 02780H 02B97H 00418H c_common               BSS
 02BA0H 0339FH 00800H STACK                  STACK

 Origin   Group
 01F6:0   DGROUP
 0000:0   IGROUP

  Address         Publics by Name

 01F6:02C8       STKHQQ
 0000:1E99       _brkctl
 0000:1D75       _creat
 01F6:076A       _crt_errlist
 01F6:07F0       _edata
 01F6:0C40       _end
 01F6:034E       _environ
 01F6:0342       _errno
 0000:052B       _exit
 0000:191B       _fflush
 0000:053B       _fgets
 0000:1E08       _flushall
 0000:0597       _fopen
 0000:05BD       _fprintf
 0000:19A1       _free
 0000:02A6       _gcopy
 0000:031E       _gecho
 0000:197F       _isatty
 0000:0010       _main
 0000:19AF       _malloc
 0000:05F4       _memcmp
 0000:0620       _memcpy
 0000:0674       _memset
 01F6:0820       _ndir
 01F6:0A2C       _odir
 0000:19F5       _open
 0000:06A5       _perror
 0000:070A       _printf
 0000:1B48       _read
 0000:0390       _rl
 0000:0740       _strchr
 0000:076A       _strcmp
 0000:079F       _strlen
 0000:07BA       _strpbrk
 01F6:05F0       _sys_errlist
 01F6:063C       _sys_nerr
 0000:07E1       _toupper
 0000:1C0E       _ultoa
 0000:03F5       _usage
 0000:16CE       _write
 01F6:031E       __abrkp
 01F6:02CE       __abrktb
 01F6:031E       __abrktbe
 0000:0001  Abs  __acrtused
 01F6:0334       __aintdiv
 0000:1C1B       __amalloc
 0000:1D56       __amallocbrk
 01F6:07D2       __amblksiz
 0000:1CFA       __amexpand
 0000:1D34       __amlink
 01F6:07CC       __aseg1
 01F6:0792       __asegds
 01F6:07CE       __asegn
 01F6:07D0       __asegr
 01F6:02CA       __asizds
 0000:046C       __astart
 0000:050F       __astkovr
 01F6:02CC       __atopsp
 01F6:0A38       __bufin
 01F6:082C       __bufout
 01F6:07C7       __cappend
 0000:1918       __cfltcvt
 01F6:0640       __cflush
 01F6:037A       __child
 0000:0458       __chkstk
 0000:0BB6       __cinherit
 0000:0C45       __cinit
 0000:051F       __cintDIV
 0000:1E3C       __cltoasub
 0000:19FA       __copensub
 01F6:0388       __cpackitin
 0000:0CC3       __cpreterm
 0000:1918       __cropzeros
 0000:189D       __crt_err_msg
 0000:1D93       __csetmode
 01F6:0334       __csetup
 01F6:037C       __csigtab
 0000:18BE       __cterm
 01F6:0388       __ctype
 01F6:0388       __ctype_
 0000:1DEA       __cXENIXtoDOSmode
 0000:1E48       __cxtoa
 01F6:0350       __doserrno
 0000:18D0       __dosret0
 0000:18D8       __dosretax
 01F6:0346       __dosvermajor
 01F6:0347       __dosverminor
 01F6:0352       __eofflag
 0000:07FC       __exit
 0000:081A       __exitquick
 01F6:0338       __fac
 0000:1918       __fassign
 0000:0840       __filbuf
 0000:17A1       __flsbuf
 01F6:07D6       __fmode
 0000:1918       __forcdecpt
 01F6:07DA       __fpinit
 0000:0525       __fptrap
 0000:0AA0       __ftbuf
 0000:1671       __getstream
 01F6:01FE       __iob
 01F6:029E       __iob2
 01F6:07D6       __iomode
 01F6:02C6       __lastiob
 0000:18E4       __maperror
 0000:1656       __mapit
 0000:19A1       __nfree
 0000:19AF       __nmalloc
 0000:0B68       __nullcheck
 01F6:0386       __on_list
 0000:08F9       __openfile
 01F6:0350       __oserr
 01F6:0366       __osfile
 01F6:0346       __osmajor
 01F6:0347       __osminor
 0000:0CE9       __output
 0000:1918       __positive
 01F6:0340       __psp
 0000:13D6       __setargv
 0000:15C2       __setenvp
 0000:09EC       __stbuf
 0000:162F       __strinit
 0000:16AB       __sys_err_msg
 01F6:0384       __tmpoff
 01F6:0344       __umaskval
 0000:0B52       __wr_badvers
 0000:0B2D       __wr_err
 01F6:0348       ___argc
 01F6:034A       ___argl
 01F6:034C       ___argv

  Address         Publics by Value

 0000:0001  Abs  __acrtused
 0000:0010       _main
 0000:02A6       _gcopy
 0000:031E       _gecho
 0000:0390       _rl
 0000:03F5       _usage
 0000:0458       __chkstk
 0000:046C       __astart
 0000:050F       __astkovr
 0000:051F       __cintDIV
 0000:0525       __fptrap
 0000:052B       _exit
 0000:053B       _fgets
 0000:0597       _fopen
 0000:05BD       _fprintf
 0000:05F4       _memcmp
 0000:0620       _memcpy
 0000:0674       _memset
 0000:06A5       _perror
 0000:070A       _printf
 0000:0740       _strchr
 0000:076A       _strcmp
 0000:079F       _strlen
 0000:07BA       _strpbrk
 0000:07E1       _toupper
 0000:07FC       __exit
 0000:081A       __exitquick
 0000:0840       __filbuf
 0000:08F9       __openfile
 0000:09EC       __stbuf
 0000:0AA0       __ftbuf
 0000:0B2D       __wr_err
 0000:0B52       __wr_badvers
 0000:0B68       __nullcheck
 0000:0BB6       __cinherit
 0000:0C45       __cinit
 0000:0CC3       __cpreterm
 0000:0CE9       __output
 0000:13D6       __setargv
 0000:15C2       __setenvp
 0000:162F       __strinit
 0000:1656       __mapit
 0000:1671       __getstream
 0000:16AB       __sys_err_msg
 0000:16CE       _write
 0000:17A1       __flsbuf
 0000:189D       __crt_err_msg
 0000:18BE       __cterm
 0000:18D0       __dosret0
 0000:18D8       __dosretax
 0000:18E4       __maperror
 0000:1918       __positive
 0000:1918       __cropzeros
 0000:1918       __cfltcvt
 0000:1918       __forcdecpt
 0000:1918       __fassign
 0000:191B       _fflush
 0000:197F       _isatty
 0000:19A1       __nfree
 0000:19A1       _free
 0000:19AF       _malloc
 0000:19AF       __nmalloc
 0000:19F5       _open
 0000:19FA       __copensub
 0000:1B48       _read
 0000:1C0E       _ultoa
 0000:1C1B       __amalloc
 0000:1CFA       __amexpand
 0000:1D34       __amlink
 0000:1D56       __amallocbrk
 0000:1D75       _creat
 0000:1D93       __csetmode
 0000:1DEA       __cXENIXtoDOSmode
 0000:1E08       _flushall
 0000:1E3C       __cltoasub
 0000:1E48       __cxtoa
 0000:1E99       _brkctl
 01F6:01FE       __iob
 01F6:029E       __iob2
 01F6:02C6       __lastiob
 01F6:02C8       STKHQQ
 01F6:02CA       __asizds
 01F6:02CC       __atopsp
 01F6:02CE       __abrktb
 01F6:031E       __abrkp
 01F6:031E       __abrktbe
 01F6:0334       __csetup
 01F6:0334       __aintdiv
 01F6:0338       __fac
 01F6:0340       __psp
 01F6:0342       _errno
 01F6:0344       __umaskval
 01F6:0346       __osmajor
 01F6:0346       __dosvermajor
 01F6:0347       __osminor
 01F6:0347       __dosverminor
 01F6:0348       ___argc
 01F6:034A       ___argl
 01F6:034C       ___argv
 01F6:034E       _environ
 01F6:0350       __oserr
 01F6:0350       __doserrno
 01F6:0352       __eofflag
 01F6:0366       __osfile
 01F6:037A       __child
 01F6:037C       __csigtab
 01F6:0384       __tmpoff
 01F6:0386       __on_list
 01F6:0388       __cpackitin
 01F6:0388       __ctype_
 01F6:0388       __ctype
 01F6:05F0       _sys_errlist
 01F6:063C       _sys_nerr
 01F6:0640       __cflush
 01F6:076A       _crt_errlist
 01F6:0792       __asegds
 01F6:07C7       __cappend
 01F6:07CC       __aseg1
 01F6:07CE       __asegn
 01F6:07D0       __asegr
 01F6:07D2       __amblksiz
 01F6:07D6       __fmode
 01F6:07D6       __iomode
 01F6:07DA       __fpinit
 01F6:07F0       _edata
 01F6:0820       _ndir
 01F6:082C       __bufout
 01F6:0A2C       _odir
 01F6:0A38       __bufin
 01F6:0C40       _end

Line numbers for I:SCANFILS.OBJ(i:scanfils.c) segment _TEXT

    48 0000:0010    57 0000:0019    62 0000:0029    63 0000:002F
    65 0000:0032    66 0000:0049    67 0000:0053    70 0000:005D
    71 0000:0074    72 0000:007E    76 0000:0088    77 0000:009A
    78 0000:00AE    79 0000:00C5    80 0000:00D9    82 0000:00EF
    85 0000:010C    86 0000:0113    88 0000:012F    89 0000:0141
    90 0000:0155    91 0000:016C    92 0000:0180    94 0000:0196
    97 0000:01B3    98 0000:01BA   101 0000:01D6   106 0000:01F4
   107 0000:020A   108 0000:020E   109 0000:0211   110 0000:021C
   112 0000:0230   113 0000:0243   114 0000:0247   116 0000:0257
   119 0000:025A   120 0000:025D   121 0000:026D   123 0000:027E
   127 0000:0288   128 0000:02A0   138 0000:02A6   144 0000:02AF
   145 0000:02BF   146 0000:02C4   147 0000:02CB   148 0000:02E4
   149 0000:02FB   150 0000:02FD   151 0000:030D   152 0000:0313
   153 0000:031A   163 0000:031E   168 0000:0327   169 0000:0337
   170 0000:033C   171 0000:0343   172 0000:035C   173 0000:0370
   174 0000:0372   175 0000:037F   176 0000:0385   177 0000:038C
   192 0000:0390   199 0000:0399   200 0000:0399   203 0000:03A2
   204 0000:03B3   205 0000:03B9   206 0000:03B9   207 0000:03F1
   217 0000:03F5   218 0000:03FD   219 0000:0407   220 0000:0411
   221 0000:041B   222 0000:0425   223 0000:042F   224 0000:0439
   225 0000:0443   227 0000:044D   228 0000:0454

Program entry point at 0000:046C
