
********************************************************

>>>>>>>>>>       JOB ID    1  COMMENCES       <<<<<<<<<<


LINE PRINTER : 0000029a


JOB ID 1 FINISHED ===>  NORMAL TERMINATE

THE SPENDING OF CLOCK TIME UNITS ===> 0000020d 

********************************************************

>>>>>>>>>>       JOB ID    2  COMMENCES       <<<<<<<<<<

>>>>>>>>>>            MEMORY DUMP             <<<<<<<<<<

COMMENTS : THE VALUE OF OPERAND1'S/OPERAND2'S IS IT'S
           CONTENTS OF MEMORY OF THE EFFECTIVE ADDRESS

   PSW       IR    TYPE MNE   OP1       OP2       CLOCK

00000004  6c000800  GI  RD            00000000  00000004
00000008  6c000804  GI  RD            ffffffff  00000018
0000000c  07021800  GI  ADD 00000001  00000001  0000002c
20000010  13029810  GI  MOV 00000000  00000002  00000030
20000014  13019804  GI  MOV 00000000  00000000  00000034
80000018  07018804  GI  ADD 00000000  00000010  00000038
2000001c  87029800  GI  SUB 00000002  00000001  0000003c
20000020  ab029804  GI  CMP 00000001  00000000  00000040
20000024  2c800014  BI  BC  07018804      0010  00000041
20000018  07018804  GI  ADD 00000010  00000010  00000045
2000001c  87029800  GI  SUB 00000001  00000001  00000049
80000020  ab029804  GI  CMP 00000000  00000000  0000004d
80000024  2c800014  BI  BC  07018804      0010  0000004e
80000028  0701180c  GI  ADD 00000001  00000020  00000052
2000002c  ab020800  GI  CMP 00000002  00000006  00000056
40000030  2e000038  BI  BC  12001808      1000  00000057
40000034  07021800  GI  ADD 00000002  00000001  0000005b
20000038  2fc0000c  BI  BC  13029810      1111  0000005c
20000010  13029810  GI  MOV 00000000  00000003  00000060
20000014  13019804  GI  MOV 00000020  00000000  00000064
80000018  07018804  GI  ADD 00000000  00000010  00000068
2000001c  87029800  GI  SUB 00000003  00000001  0000006c
20000020  ab029804  GI  CMP 00000002  00000000  00000070
20000024  2c800014  BI  BC  07018804      0010  00000071
20000018  07018804  GI  ADD 00000010  00000010  00000075
2000001c  87029800  GI  SUB 00000002  00000001  00000079
20000020  ab029804  GI  CMP 00000001  00000000  0000007d
20000024  2c800014  BI  BC  07018804      0010  0000007e
20000018  07018804  GI  ADD 00000020  00000010  00000082
2000001c  87029800  GI  SUB 00000001  00000001  00000086
80000020  ab029804  GI  CMP 00000000  00000000  0000008a
80000024  2c800014  BI  BC  07018804      0010  0000008b
80000028  0701180c  GI  ADD 00000021  00000030  0000008f
2000002c  ab020800  GI  CMP 00000003  00000006  00000093
40000030  2e000038  BI  BC  12001808      1000  00000094
40000034  07021800  GI  ADD 00000003  00000001  00000098
20000038  2fc0000c  BI  BC  13029810      1111  00000099
20000010  13029810  GI  MOV 00000000  00000004  0000009d
20000014  13019804  GI  MOV 00000030  00000000  000000a1
80000018  07018804  GI  ADD 00000000  00000010  000000a5
2000001c  87029800  GI  SUB 00000004  00000001  000000a9
20000020  ab029804  GI  CMP 00000003  00000000  000000ad
20000024  2c800014  BI  BC  07018804      0010  000000ae
20000018  07018804  GI  ADD 00000010  00000010  000000b2
2000001c  87029800  GI  SUB 00000003  00000001  000000b6
20000020  ab029804  GI  CMP 00000002  00000000  000000ba
20000024  2c800014  BI  BC  07018804      0010  000000bb
20000018  07018804  GI  ADD 00000020  00000010  000000bf
2000001c  87029800  GI  SUB 00000002  00000001  000000c3
20000020  ab029804  GI  CMP 00000001  00000000  000000c7
20000024  2c800014  BI  BC  07018804      0010  000000c8
20000018  07018804  GI  ADD 00000030  00000010  000000cc
2000001c  87029800  GI  SUB 00000001  00000001  000000d0
80000020  ab029804  GI  CMP 00000000  00000000  000000d4
80000024  2c800014  BI  BC  07018804      0010  000000d5
80000028  0701180c  GI  ADD 00000051  00000040  000000d9
2000002c  ab020800  GI  CMP 00000004  00000006  000000dd
40000030  2e000038  BI  BC  12001808      1000  000000de
40000034  07021800  GI  ADD 00000004  00000001  000000e2
20000038  2fc0000c  BI  BC  13029810      1111  000000e3
20000010  13029810  GI  MOV 00000000  00000005  000000e7
20000014  13019804  GI  MOV 00000040  00000000  000000eb
80000018  07018804  GI  ADD 00000000  00000010  000000ef
2000001c  87029800  GI  SUB 00000005  00000001  000000f3
20000020  ab029804  GI  CMP 00000004  00000000  000000f7
20000024  2c800014  BI  BC  07018804      0010  000000f8
20000018  07018804  GI  ADD 00000010  00000010  000000fc
2000001c  87029800  GI  SUB 00000004  00000001  00000100
20000020  ab029804  GI  CMP 00000003  00000000  00000104
20000024  2c800014  BI  BC  07018804      0010  00000105
20000018  07018804  GI  ADD 00000020  00000010  00000109
2000001c  87029800  GI  SUB 00000003  00000001  0000010d
20000020  ab029804  GI  CMP 00000002  00000000  00000111
20000024  2c800014  BI  BC  07018804      0010  00000112
20000018  07018804  GI  ADD 00000030  00000010  00000116
2000001c  87029800  GI  SUB 00000002  00000001  0000011a
20000020  ab029804  GI  CMP 00000001  00000000  0000011e
20000024  2c800014  BI  BC  07018804      0010  0000011f
20000018  07018804  GI  ADD 00000040  00000010  00000123
2000001c  87029800  GI  SUB 00000001  00000001  00000127
80000020  ab029804  GI  CMP 00000000  00000000  0000012b
80000024  2c800014  BI  BC  07018804      0010  0000012c
80000028  0701180c  GI  ADD 00000091  00000050  00000130
2000002c  ab020800  GI  CMP 00000005  00000006  00000134
40000030  2e000038  BI  BC  12001808      1000  00000135
40000034  07021800  GI  ADD 00000005  00000001  00000139
20000038  2fc0000c  BI  BC  13029810      1111  0000013a
20000010  13029810  GI  MOV 00000000  00000006  0000013e
20000014  13019804  GI  MOV 00000050  00000000  00000142
80000018  07018804  GI  ADD 00000000  00000010  00000146
2000001c  87029800  GI  SUB 00000006  00000001  0000014a
20000020  ab029804  GI  CMP 00000005  00000000  0000014e
20000024  2c800014  BI  BC  07018804      0010  0000014f
20000018  07018804  GI  ADD 00000010  00000010  00000153
2000001c  87029800  GI  SUB 00000005  00000001  00000157
20000020  ab029804  GI  CMP 00000004  00000000  0000015b
20000024  2c800014  BI  BC  07018804      0010  0000015c
20000018  07018804  GI  ADD 00000020  00000010  00000160
2000001c  87029800  GI  SUB 00000004  00000001  00000164
20000020  ab029804  GI  CMP 00000003  00000000  00000168
20000024  2c800014  BI  BC  07018804      0010  00000169
20000018  07018804  GI  ADD 00000030  00000010  0000016d
2000001c  87029800  GI  SUB 00000003  00000001  00000171
20000020  ab029804  GI  CMP 00000002  00000000  00000175
20000024  2c800014  BI  BC  07018804      0010  00000176
20000018  07018804  GI  ADD 00000040  00000010  0000017a
2000001c  87029800  GI  SUB 00000002  00000001  0000017e
20000020  ab029804  GI  CMP 00000001  00000000  00000182
20000024  2c800014  BI  BC  07018804      0010  00000183
20000018  07018804  GI  ADD 00000050  00000010  00000187
2000001c  87029800  GI  SUB 00000001  00000001  0000018b
80000020  ab029804  GI  CMP 00000000  00000000  0000018f
80000024  2c800014  BI  BC  07018804      0010  00000190
80000028  0701180c  GI  ADD 000000e1  00000060  00000194
2000002c  ab020800  GI  CMP 00000006  00000006  00000198
80000030  2e000038  BI  BC  12001808      1000  00000199
8000003c  12001808  GI  MOV 0000029a  00000141  0000019d
20000040  cc001000  GI  WR            00000141  000001a1

LINE PRINTER : 00000141

00000044  fc000000  GI  HLT                     000001b5

JOB ID 2 FINISHED ===>  NORMAL TERMINATE

THE SPENDING OF CLOCK TIME UNITS ===> 000001b5 

********************************************************

>>>>>>>>>>       JOB ID    3  COMMENCES       <<<<<<<<<<

>>>>>>>>>>            MEMORY DUMP             <<<<<<<<<<

COMMENTS : THE VALUE OF OPERAND1'S/OPERAND2'S IS IT'S
           CONTENTS OF MEMORY OF THE EFFECTIVE ADDRESS

   PSW       IR    TYPE MNE   OP1       OP2       CLOCK

00000004  6c000800  GI  RD            00000000  00000004
00000008  a900180c  GI  CMP 00000005  00000000  00000018
2000000c  2d000044  BI  BC  12001800      0100  00000019
20000010  2e000050  BI  BC  1200180c      1000  0000001a
20000014  a9001808  GI  CMP 00000005  00000000  0000001e
20000018  2e00005c  BI  BC  12001808      1000  0000001f
2000001c  05001804  GI  ADD 00000005  ffffffff  00000023
20000020  07031810  GI  ADD 00000000  00000000  00000027
80000024  07031814  GI  ADD 00000000  00000001  0000002b
20000028  13021814  GI  MOV 00000000  00000001  0000002f
2000002c  13029818  GI  MOV 00000001  00000001  00000033
20000030  05001800  GI  ADD 00000004  ffffffff  00000037
20000034  a900180c  GI  CMP 00000003  00000000  0000003b
20000038  2e80001c  BI  BC  07031810      1010  0000003c
20000020  07031810  GI  ADD 00000001  00000001  00000040
20000024  07031814  GI  ADD 00000002  00000001  00000044
20000028  13021814  GI  MOV 00000001  00000001  00000048
2000002c  13029818  GI  MOV 00000001  00000003  0000004c
20000030  05001800  GI  ADD 00000003  ffffffff  00000050
20000034  a900180c  GI  CMP 00000002  00000000  00000054
20000038  2e80001c  BI  BC  07031810      1010  00000055
20000020  07031810  GI  ADD 00000003  00000001  00000059
20000024  07031814  GI  ADD 00000004  00000003  0000005d
20000028  13021814  GI  MOV 00000001  00000003  00000061
2000002c  13029818  GI  MOV 00000003  00000007  00000065
20000030  05001800  GI  ADD 00000002  ffffffff  00000069
20000034  a900180c  GI  CMP 00000001  00000000  0000006d
20000038  2e80001c  BI  BC  07031810      1010  0000006e
20000020  07031810  GI  ADD 00000007  00000003  00000072
20000024  07031814  GI  ADD 0000000a  00000007  00000076
20000028  13021814  GI  MOV 00000003  00000007  0000007a
2000002c  13029818  GI  MOV 00000007  00000011  0000007e
20000030  05001800  GI  ADD 00000001  ffffffff  00000082
80000034  a900180c  GI  CMP 00000000  00000000  00000086
80000038  2e80001c  BI  BC  07031810      1010  00000087
80000020  07031810  GI  ADD 00000011  00000007  0000008b
20000024  07031814  GI  ADD 00000018  00000011  0000008f
20000028  13021814  GI  MOV 00000007  00000011  00000093
2000002c  13029818  GI  MOV 00000011  00000029  00000097
20000030  05001800  GI  ADD 00000000  ffffffff  0000009b
10000034  a900180c  GI  CMP ffffffff  00000000  0000009f
40000038  2e80001c  BI  BC  07031810      1010  000000a0
4000003c  12001818  GI  MOV 00000000  00000029  000000a4
20000040  cc001000  GI  WR            00000029  000000a8

LINE PRINTER : 00000029

00000044  fc000000  GI  HLT                     000000bc

JOB ID 3 FINISHED ===>  NORMAL TERMINATE

THE SPENDING OF CLOCK TIME UNITS ===> 000000bc 

********************************************************

>>>>>>>>>>       JOB ID    4  COMMENCES       <<<<<<<<<<

>>>>>>>>>>            MEMORY DUMP             <<<<<<<<<<

COMMENTS : THE VALUE OF OPERAND1'S/OPERAND2'S IS IT'S
           CONTENTS OF MEMORY OF THE EFFECTIVE ADDRESS

   PSW       IR    TYPE MNE   OP1       OP2       CLOCK

0000000c  6c000800  GI  RD            12001818  00000004
00000010  a9001804  GI  CMP 00000005  00000000  00000018
20000014  2d000000  BI  BC  87010800      0100  00000019
20000018  13010800  GI  MOV 00000000  00000005  0000001d
2000001c  13019800  GI  MOV ffffffff  00000001  00000021
20000020  63019808  GI  MLT 00000001  00000005  00000025
20000024  87011800  GI  SUB 00000005  00000001  00000029
20000028  ab011804  GI  CMP 00000004  00000000  0000002d
2000002c  2c80001c  BI  BC  63019808      0010  0000002e
20000020  63019808  GI  MLT 00000005  00000004  00000032
20000024  87011800  GI  SUB 00000004  00000001  00000036
20000028  ab011804  GI  CMP 00000003  00000000  0000003a
2000002c  2c80001c  BI  BC  63019808      0010  0000003b
20000020  63019808  GI  MLT 00000014  00000003  0000003f
20000024  87011800  GI  SUB 00000003  00000001  00000043
20000028  ab011804  GI  CMP 00000002  00000000  00000047
2000002c  2c80001c  BI  BC  63019808      0010  00000048
20000020  63019808  GI  MLT 0000003c  00000002  0000004c
20000024  87011800  GI  SUB 00000002  00000001  00000050
20000028  ab011804  GI  CMP 00000001  00000000  00000054
2000002c  2c80001c  BI  BC  63019808      0010  00000055
20000020  63019808  GI  MLT 00000078  00000001  00000059
20000024  87011800  GI  SUB 00000001  00000001  0000005d
80000028  ab011804  GI  CMP 00000000  00000000  00000061
8000002c  2c80001c  BI  BC  63019808      0010  00000062
80000030  1200180c  GI  MOV cc001000  00000078  00000066
20000034  cc001000  GI  WR            00000078  0000006a

LINE PRINTER : 00000078

00000038  fc000000  GI  HLT                     0000007e

JOB ID 4 FINISHED ===>  NORMAL TERMINATE

THE SPENDING OF CLOCK TIME UNITS ===> 0000007e 

********************************************************

>>>>>>>>>>       JOB ID    5  COMMENCES       <<<<<<<<<<


LINE PRINTER : 00000100


JOB ID 5 FINISHED ===>  NORMAL TERMINATE

THE SPENDING OF CLOCK TIME UNITS ===> 0000010d 

********************************************************

>>>>>>>>>>       JOB ID    6  COMMENCES       <<<<<<<<<<

>>>>>>>>>>            MEMORY DUMP             <<<<<<<<<<

COMMENTS : THE VALUE OF OPERAND1'S/OPERAND2'S IS IT'S
           CONTENTS OF MEMORY OF THE EFFECTIVE ADDRESS

   PSW       IR    TYPE MNE   OP1       OP2       CLOCK

00000004  6c000800  GI  RD            2c80001c  00000004
00000008  13011800  GI  MOV 00000000  00000000  00000018
8000000c  6c000804  GI  RD            12001808  0000001c
00000010  07010804  GI  ADD 00000000  00000012  00000030
20000014  85001804  GI  SUB 00000008  00000001  00000034
20000018  a9001800  GI  CMP 00000007  00000000  00000038
2000001c  2c800008  BI  BC  6c000804      0010  00000039
2000000c  6c000804  GI  RD            00000012  0000003d
00000010  07010804  GI  ADD 00000012  00000004  00000051
20000014  85001804  GI  SUB 00000007  00000001  00000055
20000018  a9001800  GI  CMP 00000006  00000000  00000059
2000001c  2c800008  BI  BC  6c000804      0010  0000005a
2000000c  6c000804  GI  RD            00000004  0000005e
00000010  07010804  GI  ADD 00000016  00000006  00000072
20000014  85001804  GI  SUB 00000006  00000001  00000076
20000018  a9001800  GI  CMP 00000005  00000000  0000007a
2000001c  2c800008  BI  BC  6c000804      0010  0000007b
2000000c  6c000804  GI  RD            00000006  0000007f
00000010  07010804  GI  ADD 0000001c  0000000a  00000093
20000014  85001804  GI  SUB 00000005  00000001  00000097
20000018  a9001800  GI  CMP 00000004  00000000  0000009b
2000001c  2c800008  BI  BC  6c000804      0010  0000009c
2000000c  6c000804  GI  RD            0000000a  000000a0
00000010  07010804  GI  ADD 00000026  0000000b  000000b4
20000014  85001804  GI  SUB 00000004  00000001  000000b8
20000018  a9001800  GI  CMP 00000003  00000000  000000bc
2000001c  2c800008  BI  BC  6c000804      0010  000000bd
2000000c  6c000804  GI  RD            0000000b  000000c1
00000010  07010804  GI  ADD 00000031  00000001  000000d5
20000014  85001804  GI  SUB 00000003  00000001  000000d9
20000018  a9001800  GI  CMP 00000002  00000000  000000dd
2000001c  2c800008  BI  BC  6c000804      0010  000000de
2000000c  6c000804  GI  RD            00000001  000000e2
00000010  07010804  GI  ADD 00000032  00000001  000000f6
20000014  85001804  GI  SUB 00000002  00000001  000000fa
20000018  a9001800  GI  CMP 00000001  00000000  000000fe
2000001c  2c800008  BI  BC  6c000804      0010  000000ff
2000000c  6c000804  GI  RD            00000001  00000103
00000010  07010804  GI  ADD 00000033  00000001  00000117
20000014  85001804  GI  SUB 00000001  00000001  0000011b
80000018  a9001800  GI  CMP 00000000  00000000  0000011f
8000001c  2c800008  BI  BC  6c000804      0010  00000120
80000020  12001808  GI  MOV cc001000  00000034  00000124
20000024  cc001000  GI  WR            00000034  00000128

LINE PRINTER : 00000034

00000028  fc000000  GI  HLT                     0000013c

JOB ID 6 FINISHED ===>  NORMAL TERMINATE

THE SPENDING OF CLOCK TIME UNITS ===> 0000013c 



<<<<<<<<<<<<<              END             >>>>>>>>>>>>>
********************************************************

